; ModuleID = 'source-C-CXX/59/546.c'
source_filename = "source-C-CXX/59/546.c"
target datalayout = "e-m:e-p270:32:32-p271:32:32-p272:64:64-i64:64-f80:128-n8:16:32:64-S128"
target triple = "x86_64-pc-linux-gnu"

@.str = private unnamed_addr constant [7 x i8] c"%d %d\0A\00", align 1
@.str.1 = private unnamed_addr constant [3 x i8] c"%d\00", align 1
@.str.2 = private unnamed_addr constant [6 x i8] c"empty\00", align 1

; Function Attrs: nofree nounwind sspstrong uwtable
define dso_local void @print(i32 %0) local_unnamed_addr #0 {
  %2 = add nsw i32 %0, 2
  %3 = tail call i32 (i8*, ...) @printf(i8* nonnull dereferenceable(1) getelementptr inbounds ([7 x i8], [7 x i8]* @.str, i64 0, i64 0), i32 %0, i32 %2)
  ret void
}

; Function Attrs: nofree nounwind
declare noundef i32 @printf(i8* nocapture noundef readonly, ...) local_unnamed_addr #1

; Function Attrs: nofree nounwind sspstrong uwtable
define dso_local i32 @search(i32 %0) local_unnamed_addr #0 {
  %2 = sitofp i32 %0 to double
  %3 = tail call double @sqrt(double %2) #4
  %4 = fcmp ult double %3, 2.000000e+00
  br i1 %4, label %14, label %9

5:                                                ; preds = %9
  %6 = sitofp i32 %13 to double
  %7 = tail call double @sqrt(double %2) #4
  %8 = fcmp ult double %7, %6
  br i1 %8, label %14, label %9, !llvm.loop !5

9:                                                ; preds = %1, %5
  %10 = phi i32 [ %13, %5 ], [ 2, %1 ]
  %11 = srem i32 %0, %10
  %12 = icmp eq i32 %11, 0
  %13 = add nuw nsw i32 %10, 1
  br i1 %12, label %14, label %5

14:                                               ; preds = %5, %9, %1
  %15 = phi i32 [ 1, %1 ], [ 0, %9 ], [ 1, %5 ]
  ret i32 %15
}

; Function Attrs: argmemonly mustprogress nofree nosync nounwind willreturn
declare void @llvm.lifetime.start.p0i8(i64 immarg, i8* nocapture) #2

; Function Attrs: mustprogress nofree nounwind willreturn
declare double @sqrt(double) local_unnamed_addr #3

; Function Attrs: argmemonly mustprogress nofree nosync nounwind willreturn
declare void @llvm.lifetime.end.p0i8(i64 immarg, i8* nocapture) #2

; Function Attrs: nofree nounwind sspstrong uwtable
define dso_local void @main() local_unnamed_addr #0 {
  %1 = alloca i32, align 4
  %2 = bitcast i32* %1 to i8*
  call void @llvm.lifetime.start.p0i8(i64 4, i8* nonnull %2) #4
  %3 = call i32 (i8*, ...) @__isoc99_scanf(i8* getelementptr inbounds ([3 x i8], [3 x i8]* @.str.1, i64 0, i64 0), i32* nonnull %1)
  %4 = load i32, i32* %1, align 4, !tbaa !7
  %5 = icmp slt i32 %4, 4
  br i1 %5, label %46, label %6

6:                                                ; preds = %0, %38
  %7 = phi i32 [ %39, %38 ], [ 0, %0 ]
  %8 = phi i32 [ %40, %38 ], [ 2, %0 ]
  %9 = sitofp i32 %8 to double
  %10 = call double @sqrt(double %9) #4
  %11 = fcmp ult double %10, 2.000000e+00
  br i1 %11, label %21, label %16

12:                                               ; preds = %16
  %13 = sitofp i32 %20 to double
  %14 = call double @sqrt(double %9) #4
  %15 = fcmp ult double %14, %13
  br i1 %15, label %21, label %16, !llvm.loop !5

16:                                               ; preds = %6, %12
  %17 = phi i32 [ %20, %12 ], [ 2, %6 ]
  %18 = urem i32 %8, %17
  %19 = icmp eq i32 %18, 0
  %20 = add nuw nsw i32 %17, 1
  br i1 %19, label %38, label %12

21:                                               ; preds = %12, %6
  %22 = add nuw nsw i32 %8, 2
  %23 = sitofp i32 %22 to double
  %24 = call double @sqrt(double %23) #4
  %25 = fcmp ult double %24, 2.000000e+00
  br i1 %25, label %35, label %30

26:                                               ; preds = %30
  %27 = sitofp i32 %34 to double
  %28 = call double @sqrt(double %23) #4
  %29 = fcmp ult double %28, %27
  br i1 %29, label %35, label %30, !llvm.loop !5

30:                                               ; preds = %21, %26
  %31 = phi i32 [ %34, %26 ], [ 2, %21 ]
  %32 = urem i32 %22, %31
  %33 = icmp eq i32 %32, 0
  %34 = add nuw nsw i32 %31, 1
  br i1 %33, label %38, label %26

35:                                               ; preds = %26, %21
  %36 = call i32 (i8*, ...) @printf(i8* nonnull dereferenceable(1) getelementptr inbounds ([7 x i8], [7 x i8]* @.str, i64 0, i64 0), i32 %8, i32 %22) #4
  %37 = add nsw i32 %7, 1
  br label %38

38:                                               ; preds = %16, %30, %35
  %39 = phi i32 [ %37, %35 ], [ %7, %30 ], [ %7, %16 ]
  %40 = add nuw nsw i32 %8, 1
  %41 = load i32, i32* %1, align 4, !tbaa !7
  %42 = add nsw i32 %41, -2
  %43 = icmp slt i32 %8, %42
  br i1 %43, label %6, label %44, !llvm.loop !11

44:                                               ; preds = %38
  %45 = icmp eq i32 %39, 0
  br i1 %45, label %46, label %48

46:                                               ; preds = %0, %44
  %47 = call i32 (i8*, ...) @printf(i8* nonnull dereferenceable(1) getelementptr inbounds ([6 x i8], [6 x i8]* @.str.2, i64 0, i64 0))
  br label %48

48:                                               ; preds = %46, %44
  call void @llvm.lifetime.end.p0i8(i64 4, i8* nonnull %2) #4
  ret void
}

; Function Attrs: nofree nounwind
declare noundef i32 @__isoc99_scanf(i8* nocapture noundef readonly, ...) local_unnamed_addr #1


!llvm.module.flags = !{!0, !1, !2, !3}
!llvm.ident = !{!4}

!0 = !{i32 1, !"wchar_size", i32 4}
!1 = !{i32 7, !"PIC Level", i32 2}
!2 = !{i32 7, !"PIE Level", i32 2}
!3 = !{i32 7, !"uwtable", i32 1}
!4 = !{!"clang version 13.0.0"}
!5 = distinct !{!5, !6}
!6 = !{!"llvm.loop.mustprogress"}
!7 = !{!8, !8, i64 0}
!8 = !{!"int", !9, i64 0}
!9 = !{!"omnipotent char", !10, i64 0}
!10 = !{!"Simple C/C++ TBAA"}
!11 = distinct !{!11, !6}
